target datalayout = "e-m:e-p270:32:32-p271:32:32-p272:64:64-i64:64-i128:128-f80:128-n8:16:32:64-S128"
target triple = "x86_64-pc-linux-gnu"

%struct.PROV_ML_DSA_CTX = type { ptr, ptr, [255 x i8], i64, [32 x i8], i64, i32, i32, i32, [256 x i8], i64, i32 }
%struct.ossl_param_st = type { ptr, i32, ptr, i64, i64 }

@.str = private unnamed_addr constant [60 x i8] c"../openssl/providers/implementations/signature/ml_dsa_sig.c\00", align 1
@.str.4 = private unnamed_addr constant [15 x i8] c"context-string\00", align 1
@.str.5 = private unnamed_addr constant [13 x i8] c"test-entropy\00", align 1
@__func__.ml_dsa_set_ctx_params = private unnamed_addr constant [22 x i8] c"ml_dsa_set_ctx_params\00", align 1
@.str.6 = private unnamed_addr constant [14 x i8] c"deterministic\00", align 1
@.str.7 = private unnamed_addr constant [17 x i8] c"message-encoding\00", align 1
@.str.8 = private unnamed_addr constant [3 x i8] c"mu\00", align 1

; Function Attrs: inlinehint nounwind uwtable
define internal i32 @ossl_param_is_empty(ptr noundef %0) #5 {
  %2 = alloca ptr, align 8
  store ptr %0, ptr %2, align 8, !tbaa !9
  %3 = load ptr, ptr %2, align 8, !tbaa !9
  %4 = icmp eq ptr %3, null
  br i1 %4, label %10, label %5

5:                                                ; preds = %1
  %6 = load ptr, ptr %2, align 8, !tbaa !9
  %7 = getelementptr inbounds nuw %struct.ossl_param_st, ptr %6, i32 0, i32 0
  %8 = load ptr, ptr %7, align 8, !tbaa !31
  %9 = icmp eq ptr %8, null
  br label %10

10:                                               ; preds = %5, %1
  %11 = phi i1 [ true, %1 ], [ %9, %5 ]
  %12 = zext i1 %11 to i32
  ret i32 %12
}

; Function Attrs: nounwind uwtable
define internal i32 @ml_dsa_set_ctx_params(ptr noundef %0, ptr noundef %1) #0 {
  %3 = alloca i32, align 4
  %4 = alloca ptr, align 8
  %5 = alloca ptr, align 8
  %6 = alloca ptr, align 8
  %7 = alloca ptr, align 8
  %8 = alloca i32, align 4
  %9 = alloca ptr, align 8
  %10 = alloca ptr, align 8
  store ptr %0, ptr %4, align 8, !tbaa !3
  store ptr %1, ptr %5, align 8, !tbaa !9
  call void @llvm.lifetime.start.p0(i64 8, ptr %6) #6
  %11 = load ptr, ptr %4, align 8, !tbaa !3
  store ptr %11, ptr %6, align 8, !tbaa !3
  call void @llvm.lifetime.start.p0(i64 8, ptr %7) #6
  %12 = load ptr, ptr %6, align 8, !tbaa !3
  %13 = icmp eq ptr %12, null
  br i1 %13, label %14, label %15

14:                                               ; preds = %2
  store i32 0, ptr %3, align 4
  store i32 1, ptr %8, align 4
  br label %107

15:                                               ; preds = %2
  %16 = load ptr, ptr %5, align 8, !tbaa !9
  %17 = call i32 @ossl_param_is_empty(ptr noundef %16)
  %18 = icmp ne i32 %17, 0
  br i1 %18, label %19, label %20

19:                                               ; preds = %15
  store i32 1, ptr %3, align 4
  store i32 1, ptr %8, align 4
  br label %107

20:                                               ; preds = %15
  %21 = load ptr, ptr %5, align 8, !tbaa !9
  %22 = call ptr @OSSL_PARAM_locate_const(ptr noundef %21, ptr noundef @.str.4)
  store ptr %22, ptr %7, align 8, !tbaa !9
  %23 = load ptr, ptr %7, align 8, !tbaa !9
  %24 = icmp ne ptr %23, null
  br i1 %24, label %25, label %41

25:                                               ; preds = %20
  call void @llvm.lifetime.start.p0(i64 8, ptr %9) #6
  %26 = load ptr, ptr %6, align 8, !tbaa !3
  %27 = getelementptr inbounds nuw %struct.PROV_ML_DSA_CTX, ptr %26, i32 0, i32 2
  %28 = getelementptr inbounds [255 x i8], ptr %27, i64 0, i64 0
  store ptr %28, ptr %9, align 8, !tbaa !3
  %29 = load ptr, ptr %7, align 8, !tbaa !9
  %30 = load ptr, ptr %6, align 8, !tbaa !3
  %31 = getelementptr inbounds nuw %struct.PROV_ML_DSA_CTX, ptr %30, i32 0, i32 3
  %32 = call i32 @OSSL_PARAM_get_octet_string(ptr noundef %29, ptr noundef %9, i64 noundef 255, ptr noundef %31)
  %33 = icmp ne i32 %32, 0
  br i1 %33, label %37, label %34

34:                                               ; preds = %25
  %35 = load ptr, ptr %6, align 8, !tbaa !3
  %36 = getelementptr inbounds nuw %struct.PROV_ML_DSA_CTX, ptr %35, i32 0, i32 3
  store i64 0, ptr %36, align 8, !tbaa !25
  store i32 0, ptr %3, align 4
  store i32 1, ptr %8, align 4
  br label %38

37:                                               ; preds = %25
  store i32 0, ptr %8, align 4
  br label %38

38:                                               ; preds = %37, %34
  call void @llvm.lifetime.end.p0(i64 8, ptr %9) #6
  %39 = load i32, ptr %8, align 4
  switch i32 %39, label %107 [
    i32 0, label %40
  ]

40:                                               ; preds = %38
  br label %41

41:                                               ; preds = %40, %20
  %42 = load ptr, ptr %5, align 8, !tbaa !9
  %43 = call ptr @OSSL_PARAM_locate_const(ptr noundef %42, ptr noundef @.str.5)
  store ptr %43, ptr %7, align 8, !tbaa !9
  %44 = load ptr, ptr %7, align 8, !tbaa !9
  %45 = icmp ne ptr %44, null
  br i1 %45, label %46, label %70

46:                                               ; preds = %41
  call void @llvm.lifetime.start.p0(i64 8, ptr %10) #6
  %47 = load ptr, ptr %6, align 8, !tbaa !3
  %48 = getelementptr inbounds nuw %struct.PROV_ML_DSA_CTX, ptr %47, i32 0, i32 4
  %49 = getelementptr inbounds [32 x i8], ptr %48, i64 0, i64 0
  store ptr %49, ptr %10, align 8, !tbaa !3
  %50 = load ptr, ptr %6, align 8, !tbaa !3
  %51 = getelementptr inbounds nuw %struct.PROV_ML_DSA_CTX, ptr %50, i32 0, i32 5
  store i64 0, ptr %51, align 8, !tbaa !17
  %52 = load ptr, ptr %7, align 8, !tbaa !9
  %53 = load ptr, ptr %6, align 8, !tbaa !3
  %54 = getelementptr inbounds nuw %struct.PROV_ML_DSA_CTX, ptr %53, i32 0, i32 5
  %55 = call i32 @OSSL_PARAM_get_octet_string(ptr noundef %52, ptr noundef %10, i64 noundef 32, ptr noundef %54)
  %56 = icmp ne i32 %55, 0
  br i1 %56, label %58, label %57

57:                                               ; preds = %46
  store i32 0, ptr %3, align 4
  store i32 1, ptr %8, align 4
  br label %67

58:                                               ; preds = %46
  %59 = load ptr, ptr %6, align 8, !tbaa !3
  %60 = getelementptr inbounds nuw %struct.PROV_ML_DSA_CTX, ptr %59, i32 0, i32 5
  %61 = load i64, ptr %60, align 8, !tbaa !17
  %62 = icmp ne i64 %61, 32
  br i1 %62, label %63, label %66

63:                                               ; preds = %58
  %64 = load ptr, ptr %6, align 8, !tbaa !3
  %65 = getelementptr inbounds nuw %struct.PROV_ML_DSA_CTX, ptr %64, i32 0, i32 5
  store i64 0, ptr %65, align 8, !tbaa !17
  call void @ERR_new()
  call void @ERR_set_debug(ptr noundef @.str, i32 noundef 268, ptr noundef @__func__.ml_dsa_set_ctx_params)
  call void (i32, i32, ptr, ...) @ERR_set_error(i32 noundef 57, i32 noundef 154, ptr noundef null)
  store i32 0, ptr %3, align 4
  store i32 1, ptr %8, align 4
  br label %67

66:                                               ; preds = %58
  store i32 0, ptr %8, align 4
  br label %67

67:                                               ; preds = %66, %63, %57
  call void @llvm.lifetime.end.p0(i64 8, ptr %10) #6
  %68 = load i32, ptr %8, align 4
  switch i32 %68, label %107 [
    i32 0, label %69
  ]

69:                                               ; preds = %67
  br label %70

70:                                               ; preds = %69, %41
  %71 = load ptr, ptr %5, align 8, !tbaa !9
  %72 = call ptr @OSSL_PARAM_locate_const(ptr noundef %71, ptr noundef @.str.6)
  store ptr %72, ptr %7, align 8, !tbaa !9
  %73 = load ptr, ptr %7, align 8, !tbaa !9
  %74 = icmp ne ptr %73, null
  br i1 %74, label %75, label %82

75:                                               ; preds = %70
  %76 = load ptr, ptr %7, align 8, !tbaa !9
  %77 = load ptr, ptr %6, align 8, !tbaa !3
  %78 = getelementptr inbounds nuw %struct.PROV_ML_DSA_CTX, ptr %77, i32 0, i32 7
  %79 = call i32 @OSSL_PARAM_get_int(ptr noundef %76, ptr noundef %78)
  %80 = icmp ne i32 %79, 0
  br i1 %80, label %82, label %81

81:                                               ; preds = %75
  store i32 0, ptr %3, align 4
  store i32 1, ptr %8, align 4
  br label %107

82:                                               ; preds = %75, %70
  %83 = load ptr, ptr %5, align 8, !tbaa !9
  %84 = call ptr @OSSL_PARAM_locate_const(ptr noundef %83, ptr noundef @.str.7)
  store ptr %84, ptr %7, align 8, !tbaa !9
  %85 = load ptr, ptr %7, align 8, !tbaa !9
  %86 = icmp ne ptr %85, null
  br i1 %86, label %87, label %94

87:                                               ; preds = %82
  %88 = load ptr, ptr %7, align 8, !tbaa !9
  %89 = load ptr, ptr %6, align 8, !tbaa !3
  %90 = getelementptr inbounds nuw %struct.PROV_ML_DSA_CTX, ptr %89, i32 0, i32 6
  %91 = call i32 @OSSL_PARAM_get_int(ptr noundef %88, ptr noundef %90)
  %92 = icmp ne i32 %91, 0
  br i1 %92, label %94, label %93

93:                                               ; preds = %87
  store i32 0, ptr %3, align 4
  store i32 1, ptr %8, align 4
  br label %107

94:                                               ; preds = %87, %82
  %95 = load ptr, ptr %5, align 8, !tbaa !9
  %96 = call ptr @OSSL_PARAM_locate_const(ptr noundef %95, ptr noundef @.str.8)
  store ptr %96, ptr %7, align 8, !tbaa !9
  %97 = load ptr, ptr %7, align 8, !tbaa !9
  %98 = icmp ne ptr %97, null
  br i1 %98, label %99, label %106

99:                                               ; preds = %94
  %100 = load ptr, ptr %7, align 8, !tbaa !9
  %101 = load ptr, ptr %6, align 8, !tbaa !3
  %102 = getelementptr inbounds nuw %struct.PROV_ML_DSA_CTX, ptr %101, i32 0, i32 11
  %103 = call i32 @OSSL_PARAM_get_int(ptr noundef %100, ptr noundef %102)
  %104 = icmp ne i32 %103, 0
  br i1 %104, label %106, label %105

105:                                              ; preds = %99
  store i32 0, ptr %3, align 4
  store i32 1, ptr %8, align 4
  br label %107

106:                                              ; preds = %99, %94
  store i32 1, ptr %3, align 4
  store i32 1, ptr %8, align 4
  br label %107

107:                                              ; preds = %106, %105, %93, %81, %67, %38, %19, %14
  call void @llvm.lifetime.end.p0(i64 8, ptr %7) #6
  call void @llvm.lifetime.end.p0(i64 8, ptr %6) #6
  %108 = load i32, ptr %3, align 4
  ret i32 %108
}