; Function Attrs: nounwind uwtable
define internal range(i32 0, 2) i32 @ml_dsa_set_ctx_params(ptr noundef %0, ptr noundef %1) #0 {
  %3 = alloca ptr, align 8
  %4 = alloca ptr, align 8
  %5 = icmp eq ptr %0, null
  br i1 %5, label %ossl_param_is_empty.exit.thread, label %6

6:                                                ; preds = %2
  %7 = icmp eq ptr %1, null
  br i1 %7, label %ossl_param_is_empty.exit.thread, label %ossl_param_is_empty.exit

ossl_param_is_empty.exit:                         ; preds = %6
  %8 = load ptr, ptr %1, align 8, !tbaa !20
  %.not = icmp eq ptr %8, null
  br i1 %.not, label %ossl_param_is_empty.exit.thread, label %9

9:                                                ; preds = %ossl_param_is_empty.exit
  %10 = tail call ptr @OSSL_PARAM_locate_const(ptr noundef nonnull %1, ptr noundef nonnull @.str.4) #6
  %.not40 = icmp eq ptr %10, null
  br i1 %.not40, label %16, label %11

11:                                               ; preds = %9
  call void @llvm.lifetime.start.p0(i64 8, ptr nonnull %3) #6
  %12 = getelementptr inbounds nuw i8, ptr %0, i64 16
  store ptr %12, ptr %3, align 8, !tbaa !23
  %13 = getelementptr inbounds nuw i8, ptr %0, i64 272
  %14 = call i32 @OSSL_PARAM_get_octet_string(ptr noundef nonnull %10, ptr noundef nonnull %3, i64 noundef 255, ptr noundef nonnull %13) #6
  %.not41.not = icmp eq i32 %14, 0
  br i1 %.not41.not, label %15, label %.critedge

15:                                               ; preds = %11
  store i64 0, ptr %13, align 8, !tbaa !18
  call void @llvm.lifetime.end.p0(i64 8, ptr nonnull %3) #6
  br label %ossl_param_is_empty.exit.thread

.critedge:                                        ; preds = %11
  call void @llvm.lifetime.end.p0(i64 8, ptr nonnull %3) #6
  br label %16

16:                                               ; preds = %.critedge, %9
  %17 = call ptr @OSSL_PARAM_locate_const(ptr noundef nonnull %1, ptr noundef nonnull @.str.5) #6
  %.not42 = icmp eq ptr %17, null
  br i1 %.not42, label %26, label %18

18:                                               ; preds = %16
  call void @llvm.lifetime.start.p0(i64 8, ptr nonnull %4) #6
  %19 = getelementptr inbounds nuw i8, ptr %0, i64 280
  store ptr %19, ptr %4, align 8, !tbaa !23
  %20 = getelementptr inbounds nuw i8, ptr %0, i64 312
  store i64 0, ptr %20, align 8, !tbaa !14
  %21 = call i32 @OSSL_PARAM_get_octet_string(ptr noundef nonnull %17, ptr noundef nonnull %4, i64 noundef 32, ptr noundef nonnull %20) #6
  %.not43 = icmp eq i32 %21, 0
  br i1 %.not43, label %.critedge52, label %22

22:                                               ; preds = %18
  %23 = load i64, ptr %20, align 8, !tbaa !14
  %.not44 = icmp eq i64 %23, 32
  br i1 %.not44, label %25, label %24

24:                                               ; preds = %22
  store i64 0, ptr %20, align 8, !tbaa !14
  call void @ERR_new() #6
  call void @ERR_set_debug(ptr noundef nonnull @.str, i32 noundef 268, ptr noundef nonnull @__func__.ml_dsa_set_ctx_params) #6
  call void (i32, i32, ptr, ...) @ERR_set_error(i32 noundef 57, i32 noundef 154, ptr noundef null) #6
  br label %.critedge52

25:                                               ; preds = %22
  call void @llvm.lifetime.end.p0(i64 8, ptr nonnull %4) #6
  br label %26

26:                                               ; preds = %25, %16
  %27 = call ptr @OSSL_PARAM_locate_const(ptr noundef nonnull %1, ptr noundef nonnull @.str.6) #6
  %.not45 = icmp eq ptr %27, null
  br i1 %.not45, label %31, label %28

28:                                               ; preds = %26
  %29 = getelementptr inbounds nuw i8, ptr %0, i64 324
  %30 = call i32 @OSSL_PARAM_get_int(ptr noundef nonnull %27, ptr noundef nonnull %29) #6
  %.not46 = icmp eq i32 %30, 0
  br i1 %.not46, label %ossl_param_is_empty.exit.thread, label %31

31:                                               ; preds = %28, %26
  %32 = call ptr @OSSL_PARAM_locate_const(ptr noundef nonnull %1, ptr noundef nonnull @.str.7) #6
  %.not47 = icmp eq ptr %32, null
  br i1 %.not47, label %36, label %33

33:                                               ; preds = %31
  %34 = getelementptr inbounds nuw i8, ptr %0, i64 320
  %35 = call i32 @OSSL_PARAM_get_int(ptr noundef nonnull %32, ptr noundef nonnull %34) #6
  %.not48 = icmp eq i32 %35, 0
  br i1 %.not48, label %ossl_param_is_empty.exit.thread, label %36

36:                                               ; preds = %33, %31
  %37 = call ptr @OSSL_PARAM_locate_const(ptr noundef nonnull %1, ptr noundef nonnull @.str.8) #6
  %.not49 = icmp eq ptr %37, null
  br i1 %.not49, label %41, label %38

38:                                               ; preds = %36
  %39 = getelementptr inbounds nuw i8, ptr %0, i64 600
  %40 = call i32 @OSSL_PARAM_get_int(ptr noundef nonnull %37, ptr noundef nonnull %39) #6
  %.not50 = icmp eq i32 %40, 0
  br i1 %.not50, label %ossl_param_is_empty.exit.thread, label %41

41:                                               ; preds = %38, %36
  br label %ossl_param_is_empty.exit.thread

.critedge52:                                      ; preds = %18, %24
  call void @llvm.lifetime.end.p0(i64 8, ptr nonnull %4) #6
  br label %ossl_param_is_empty.exit.thread

ossl_param_is_empty.exit.thread:                  ; preds = %6, %15, %38, %33, %28, %.critedge52, %ossl_param_is_empty.exit, %2, %41
  %.032 = phi i32 [ 1, %41 ], [ 0, %15 ], [ 0, %2 ], [ 1, %ossl_param_is_empty.exit ], [ 0, %.critedge52 ], [ 0, %28 ], [ 0, %33 ], [ 0, %38 ], [ 1, %6 ]
  ret i32 %.032
}